; Function Attrs: mustprogress nounwind uwtable
define dso_local void @_ZN2EA4StdC9Stopwatch19SetElapsedTimeFloatEf(ptr noundef nonnull align 8 captures(none) dereferenceable(24) initializes((8, 16)) %this, float noundef %fElapsedTime) local_unnamed_addr #0 align 2 {
entry:
  %ts.i.i.i = alloca %struct.timespec, align 8
  %0 = load i64, ptr %this, align 8
  %cmp.i.not = icmp eq i64 %0, 0
  br i1 %cmp.i.not, label %if.end, label %if.then

if.then:                                          ; preds = %entry
  %mnUnits.i.i = getelementptr inbounds nuw i8, ptr %this, i64 16
  tail call void @llvm.memset.p0.i64(ptr noundef nonnull align 8 dereferenceable(24) %this, i8 0, i64 16, i1 false)
  %1 = load i32, ptr %mnUnits.i.i, align 8
  %cmp.i.i = icmp eq i32 %1, 1
  br i1 %cmp.i.i, label %if.then2.i.i, label %if.else.i.i

if.then2.i.i:                                     ; preds = %if.then
  %2 = tail call noundef i64 @llvm.x86.rdtsc()
  br label %_ZN2EA4StdC9Stopwatch7RestartEv.exit

if.else.i.i:                                      ; preds = %if.then
  call void @llvm.lifetime.start.p0(i64 16, ptr nonnull %ts.i.i.i)
  %call.i.i.i = call i32 @clock_gettime(i32 noundef 1, ptr noundef nonnull %ts.i.i.i) #7
  %cmp.i.i.i = icmp eq i32 %call.i.i.i, 22
  br i1 %cmp.i.i.i, label %if.then.i.i.i, label %_ZN2EA4StdC9Stopwatch17GetStopwatchCycleEv.exit.i.i

if.then.i.i.i:                                    ; preds = %if.else.i.i
  %call1.i.i.i = call i32 @clock_gettime(i32 noundef 0, ptr noundef nonnull %ts.i.i.i) #7
  br label %_ZN2EA4StdC9Stopwatch17GetStopwatchCycleEv.exit.i.i

_ZN2EA4StdC9Stopwatch17GetStopwatchCycleEv.exit.i.i: ; preds = %if.then.i.i.i, %if.else.i.i
  %tv_nsec.i.i.i = getelementptr inbounds nuw i8, ptr %ts.i.i.i, i64 8
  %3 = load i64, ptr %tv_nsec.i.i.i, align 8
  %4 = load i64, ptr %ts.i.i.i, align 8
  %mul.i.i.i = mul i64 %4, 1000000000
  %add.i.i.i = add i64 %mul.i.i.i, %3
  call void @llvm.lifetime.end.p0(i64 16, ptr nonnull %ts.i.i.i)
  br label %_ZN2EA4StdC9Stopwatch7RestartEv.exit

_ZN2EA4StdC9Stopwatch7RestartEv.exit:             ; preds = %if.then2.i.i, %_ZN2EA4StdC9Stopwatch17GetStopwatchCycleEv.exit.i.i
  %.sink.i.i = phi i64 [ %2, %if.then2.i.i ], [ %add.i.i.i, %_ZN2EA4StdC9Stopwatch17GetStopwatchCycleEv.exit.i.i ]
  store i64 %.sink.i.i, ptr %this, align 8
  br label %if.end

if.end:                                           ; preds = %_ZN2EA4StdC9Stopwatch7RestartEv.exit, %entry
  %mfStopwatchCyclesToUnitsCoefficient = getelementptr inbounds nuw i8, ptr %this, i64 20
  %5 = load float, ptr %mfStopwatchCyclesToUnitsCoefficient, align 4
  %div = fdiv float %fElapsedTime, %5
  %conv = fptoui float %div to i64
  %mnTotalElapsedTime = getelementptr inbounds nuw i8, ptr %this, i64 8
  store i64 %conv, ptr %mnTotalElapsedTime, align 8
  ret void
}